EXPORTS 
	?$TSS0@?1???$init@$0A@@plog@@YAAAV?$Logger@$0A@@1@W4Severity@1@PAVIAppender@1@@Z@4HA 	 DATA
	??_R0?AV?$ColorConsoleAppender@VTxtFormatter@plog@@@plog@@@8 	 DATA
	??_R0?AV?$ConsoleAppender@VTxtFormatter@plog@@@plog@@@8 	 DATA
	??_R0?AV?$Logger@$0A@@plog@@@8 	 DATA
	??_R0?AV?$RollingFileAppender@VCsvFormatter@plog@@V?$NativeEOLConverter@VUTF8Converter@plog@@@2@@plog@@@8 	 DATA
	??_R0?AV?$Singleton@V?$Logger@$0A@@plog@@@util@plog@@@8 	 DATA
	??_R0?AV?$_Iosb@H@std@@@8 	 DATA
	??_R0?AV?$basic_ios@_WU?$char_traits@_W@std@@@std@@@8 	 DATA
	??_R0?AV?$basic_istream@_WU?$char_traits@_W@std@@@std@@@8 	 DATA
	??_R0?AV?$basic_istringstream@_WU?$char_traits@_W@std@@V?$allocator@_W@2@@std@@@8 	 DATA
	??_R0?AV?$basic_ostream@_WU?$char_traits@_W@std@@@std@@@8 	 DATA
	??_R0?AV?$basic_ostringstream@_WU?$char_traits@_W@std@@V?$allocator@_W@2@@std@@@8 	 DATA
	??_R0?AV?$basic_streambuf@_WU?$char_traits@_W@std@@@std@@@8 	 DATA
	??_R0?AV?$basic_stringbuf@_WU?$char_traits@_W@std@@V?$allocator@_W@2@@std@@@8 	 DATA
	??_R0?AVIAppender@plog@@@8 	 DATA
	??_R0?AVLevelEditorScene@@@8 	 DATA
	??_R0?AVLevelScene@@@8 	 DATA
	??_R0?AVNonCopyable@util@plog@@@8 	 DATA
	??_R0?AVRecord@plog@@@8 	 DATA
	??_R0?AVScene@@@8 	 DATA
	??_R0?AVbad_alloc@std@@@8 	 DATA
	??_R0?AVbad_array_new_length@std@@@8 	 DATA
	??_R0?AVbad_cast@std@@@8 	 DATA
	??_R0?AVexception@std@@@8 	 DATA
	??_R0?AVios_base@std@@@8 	 DATA
	?_Psave@?$_Facetptr@V?$ctype@_W@std@@@std@@2PBVfacet@locale@2@B 	 DATA
	?logger@?1???$init@$0A@@plog@@YAAAV?$Logger@$0A@@1@W4Severity@1@PAVIAppender@1@@Z@4V21@A 	 DATA
	?m_instance@?$Singleton@V?$Logger@$0A@@plog@@@util@plog@@0PAV?$Logger@$0A@@3@A 	 DATA
	??$?0$$V@?$_Compressed_pair@V?$allocator@D@std@@V?$_String_val@U?$_Simple_types@D@std@@@2@$00@std@@QAE@U_Zero_then_variadic_args_t@1@@Z
	??$?0$$V@?$_Compressed_pair@V?$allocator@PAVIAppender@plog@@@std@@V?$_Vector_val@U?$_Simple_types@PAVIAppender@plog@@@std@@@2@$00@std@@QAE@U_Zero_then_variadic_args_t@1@@Z
	??$?0$$V@?$_Compressed_pair@V?$allocator@_W@std@@V?$_String_val@U?$_Simple_types@_W@std@@@2@$00@std@@QAE@U_Zero_then_variadic_args_t@1@@Z
	??$?0AAPAV_Facet_base@std@@@?$_Compressed_pair@U?$default_delete@V_Facet_base@std@@@std@@PAV_Facet_base@2@$00@std@@QAE@U_Zero_then_variadic_args_t@1@AAPAV_Facet_base@1@@Z
	??$?0AAV?$allocator@D@std@@$$V@?$_Compressed_pair@V?$allocator@D@std@@V?$_String_val@U?$_Simple_types@D@std@@@2@$00@std@@QAE@U_One_then_variadic_args_t@1@AAV?$allocator@D@1@@Z
	??$?0ABV?$allocator@_W@std@@$$V@?$_Compressed_pair@V?$allocator@_W@std@@V?$_String_val@U?$_Simple_types@_W@std@@@2@$00@std@@QAE@U_One_then_variadic_args_t@1@ABV?$allocator@_W@1@@Z
	??$?0D@?$allocator@U_Container_proxy@std@@@std@@QAE@ABV?$allocator@D@1@@Z
	??$?0PAVIAppender@plog@@@?$allocator@U_Container_proxy@std@@@std@@QAE@ABV?$allocator@PAVIAppender@plog@@@1@@Z
	??$?0U?$default_delete@V_Facet_base@std@@@std@@$0A@@?$unique_ptr@V_Facet_base@std@@U?$default_delete@V_Facet_base@std@@@2@@std@@QAE@PAV_Facet_base@1@@Z
	??$?0V?$allocator@D@std@@$$V@?$_Compressed_pair@V?$allocator@D@std@@V?$_String_val@U?$_Simple_types@D@std@@@2@$00@std@@QAE@U_One_then_variadic_args_t@1@$$QAV?$allocator@D@1@@Z
	??$?0V?$allocator@_W@std@@$$V@?$_Compressed_pair@V?$allocator@_W@std@@V?$_String_val@U?$_Simple_types@_W@std@@@2@$00@std@@QAE@U_One_then_variadic_args_t@1@$$QAV?$allocator@_W@1@@Z
	??$?0_W@?$allocator@U_Container_proxy@std@@@std@@QAE@ABV?$allocator@_W@1@@Z
	??$?6$$BY03D@Record@plog@@QAEAAV01@AAY03$$CBD@Z
	??$?6$$BY05D@Record@plog@@QAEAAV01@AAY05$$CBD@Z
	??$?6$$BY0BD@D@Record@plog@@QAEAAV01@AAY0BD@$$CBD@Z
	??$?6$$BY0BG@D@Record@plog@@QAEAAV01@AAY0BG@$$CBD@Z
	??$?6$$BY0BH@D@Record@plog@@QAEAAV01@AAY0BH@$$CBD@Z
	??$?6$$BY0BI@D@Record@plog@@QAEAAV01@AAY0BI@$$CBD@Z
	??$?6$$BY0BK@D@Record@plog@@QAEAAV01@AAY0BK@$$CBD@Z
	??$?6$$BY0BP@D@Record@plog@@QAEAAV01@AAY0BP@$$CBD@Z
	??$?6$$BY0CA@D@Record@plog@@QAEAAV01@AAY0CA@$$CBD@Z
	??$?6$$BY0CB@D@Record@plog@@QAEAAV01@AAY0CB@$$CBD@Z
	??$?6$$BY0CC@D@Record@plog@@QAEAAV01@AAY0CC@$$CBD@Z
	??$?6$$BY0CD@D@Record@plog@@QAEAAV01@AAY0CD@$$CBD@Z
	??$?6$$BY0CE@D@Record@plog@@QAEAAV01@AAY0CE@$$CBD@Z
	??$?6$$BY0CF@D@Record@plog@@QAEAAV01@AAY0CF@$$CBD@Z
	??$?6$$BY0N@D@Record@plog@@QAEAAV01@AAY0N@$$CBD@Z
	??$?6$$BY0O@D@Record@plog@@QAEAAV01@AAY0O@$$CBD@Z
	??$?6DU?$char_traits@D@std@@V?$allocator@D@1@@std@@YAAAV?$basic_ostream@DU?$char_traits@D@std@@@0@AAV10@ABV?$basic_string@DU?$char_traits@D@std@@V?$allocator@D@2@@0@@Z
	??$?6M@Record@plog@@QAEAAV01@ABM@Z
	??$?6PAVKeyboardListener@@@Record@plog@@QAEAAV01@ABQAVKeyboardListener@@@Z
	??$?6PAVMouseListener@@@Record@plog@@QAEAAV01@ABQAVMouseListener@@@Z
	??$?6PAVTimer@@@Record@plog@@QAEAAV01@ABQAVTimer@@@Z
	??$?6PAVWindow@@@Record@plog@@QAEAAV01@ABQAVWindow@@@Z
	??$?6_WU?$char_traits@_W@std@@@std@@YAAAV?$basic_ostream@_WU?$char_traits@_W@std@@@0@AAV10@D@Z
	??$?6_WU?$char_traits@_W@std@@@std@@YAAAV?$basic_ostream@_WU?$char_traits@_W@std@@@0@AAV10@PBD@Z
	??$?6_WU?$char_traits@_W@std@@@std@@YAAAV?$basic_ostream@_WU?$char_traits@_W@std@@@0@AAV10@PB_W@Z
	??$?6_WU?$char_traits@_W@std@@V?$allocator@_W@1@@std@@YAAAV?$basic_ostream@_WU?$char_traits@_W@std@@@0@AAV10@ABV?$basic_string@_WU?$char_traits@_W@std@@V?$allocator@_W@2@@0@@Z
	??$?6_WU?$char_traits@_W@std@@_J@std@@YAAAV?$basic_ostream@_WU?$char_traits@_W@std@@@0@AAV10@ABU?$_Smanip@_J@0@@Z
	??$?6_WU?$char_traits@_W@std@@_W@std@@YAAAV?$basic_ostream@_WU?$char_traits@_W@std@@@0@AAV10@ABU?$_Fillobj@_W@0@@Z
	??$?HDU?$char_traits@D@std@@V?$allocator@D@1@@std@@YA?AV?$basic_string@DU?$char_traits@D@std@@V?$allocator@D@2@@0@$$QAV10@0@Z
	??$_Adl_verify_range@PB_WPB_W@std@@YAXABQB_W0@Z
	??$_Alloc_proxy@V?$allocator@U_Container_proxy@std@@@std@@@_Container_base12@std@@QAEX$$QAV?$allocator@U_Container_proxy@std@@@1@@Z
	??$_Allocate@$07U_Default_allocate_traits@std@@$0A@@std@@YAPAXI@Z
	??$_Allocate_manually_vector_aligned@U_Default_allocate_traits@std@@@std@@YAPAXI@Z
	??$_Allocators_equal@V?$allocator@D@std@@@std@@YA_NABV?$allocator@D@0@0@Z
	??$_Construct_in_place@PADABQAD@std@@YAXAAPADABQAD@Z
	??$_Construct_in_place@PA_WABQA_W@std@@YAXAAPA_WABQA_W@Z
	??$_Construct_in_place@U_Container_proxy@std@@PAU_Container_base12@2@@std@@YAXAAU_Container_proxy@0@$$QAPAU_Container_base12@0@@Z
	??$_Convert_size@I@std@@YAII@Z
	??$_Copy_memmove@PAPAVIAppender@plog@@PAPAV12@@std@@YAPAPAVIAppender@plog@@PAPAV12@00@Z
	??$_Deallocate@$07$0A@@std@@YAXPAXI@Z
	??$_Deallocate_plain@V?$allocator@U_Container_proxy@std@@@std@@@std@@YAXAAV?$allocator@U_Container_proxy@std@@@0@QAU_Container_proxy@0@@Z
	??$_Delete_plain_internal@V?$allocator@U_Container_proxy@std@@@std@@@std@@YAXAAV?$allocator@U_Container_proxy@std@@@0@QAU_Container_proxy@0@@Z
	??$_Destroy_in_place@PAD@std@@YAXAAPAD@Z
	??$_Destroy_in_place@PA_W@std@@YAXAAPA_W@Z
	??$_Destroy_range@V?$allocator@PAVIAppender@plog@@@std@@@std@@YAXPAPAVIAppender@plog@@QAPAV12@AAV?$allocator@PAVIAppender@plog@@@0@@Z
	??$_Emplace_back_with_unused_capacity@ABQAVIAppender@plog@@@?$vector@PAVIAppender@plog@@V?$allocator@PAVIAppender@plog@@@std@@@std@@AAEXABQAVIAppender@plog@@@Z
	??$_Emplace_reallocate@ABQAVIAppender@plog@@@?$vector@PAVIAppender@plog@@V?$allocator@PAVIAppender@plog@@@std@@@std@@QAEPAPAVIAppender@plog@@QAPAV23@ABQAV23@@Z
	??$_Get_size_of_n@$00@std@@YAII@Z
	??$_Get_size_of_n@$01@std@@YAII@Z
	??$_Get_size_of_n@$03@std@@YAII@Z
	??$_Get_size_of_n@$07@std@@YAII@Z
	??$_Get_unwrapped@ABQAPAVIAppender@plog@@@std@@YAPAPAVIAppender@plog@@ABQAPAV12@@Z
	??$_Get_unwrapped@ABQB_W@std@@YAPB_WABQB_W@Z
	??$_Getvals@_W@?$time_get@DV?$istreambuf_iterator@DU?$char_traits@D@std@@@std@@@std@@IAEX_WABV_Locinfo@1@@Z
	??$_Getvals@_W@?$time_get@_WV?$istreambuf_iterator@_WU?$char_traits@_W@std@@@std@@@std@@IAEX_WABV_Locinfo@1@@Z
	??$_Insert_string@DU?$char_traits@D@std@@I@std@@YAAAV?$basic_ostream@DU?$char_traits@D@std@@@0@AAV10@QBDI@Z
	??$_Insert_string@_WU?$char_traits@_W@std@@I@std@@YAAAV?$basic_ostream@_WU?$char_traits@_W@std@@@0@AAV10@QB_WI@Z
	??$_Maklocstr@D@std@@YAPADPBDPADABU_Cvtvec@@@Z
	??$_Maklocstr@_W@std@@YAPA_WPBDPA_WABU_Cvtvec@@@Z
	??$_Pocma@V?$allocator@D@std@@@std@@YAXAAV?$allocator@D@0@0@Z
	??$_Pocma@V?$allocator@_W@std@@@std@@YAXAAV?$allocator@_W@0@0@Z
	??$_Reallocate_for@V<lambda_03628ca18370b1f44a99b655e704819b>@@PB_W@?$basic_string@_WU?$char_traits@_W@std@@V?$allocator@_W@2@@std@@AAEAAV01@IV<lambda_03628ca18370b1f44a99b655e704819b>@@PB_W@Z
	??$_Reallocate_for@V<lambda_9366063389c5f42a00a5088cf24e69de>@@PBD@?$basic_string@DU?$char_traits@D@std@@V?$allocator@D@2@@std@@AAEAAV01@IV<lambda_9366063389c5f42a00a5088cf24e69de>@@PBD@Z
	??$_Reallocate_for@V<lambda_c6753c90be971fc9cc00b4f35f237a75>@@D@?$basic_string@DU?$char_traits@D@std@@V?$allocator@D@2@@std@@AAEAAV01@IV<lambda_c6753c90be971fc9cc00b4f35f237a75>@@D@Z
	??$_Reallocate_for@V<lambda_ce475b7b8bd67a606e496821c303ff69>@@_W@?$basic_string@_WU?$char_traits@_W@std@@V?$allocator@_W@2@@std@@AAEAAV01@IV<lambda_ce475b7b8bd67a606e496821c303ff69>@@_W@Z
	??$_Reallocate_grow_by@V<lambda_2fb699096920f2dc628cb0826b07831d>@@PB_WI@?$basic_string@_WU?$char_traits@_W@std@@V?$allocator@_W@2@@std@@AAEAAV01@IV<lambda_2fb699096920f2dc628cb0826b07831d>@@PB_WI@Z
	??$_Reallocate_grow_by@V<lambda_38fb7828f6004e9a4c6a38bfc6df7f44>@@_W@?$basic_string@_WU?$char_traits@_W@std@@V?$allocator@_W@2@@std@@AAEAAV01@IV<lambda_38fb7828f6004e9a4c6a38bfc6df7f44>@@_W@Z
	??$_Reallocate_grow_by@V<lambda_4755c59c3a9e60a5b049353a7584df55>@@$$V@?$basic_string@_WU?$char_traits@_W@std@@V?$allocator@_W@2@@std@@AAEAAV01@IV<lambda_4755c59c3a9e60a5b049353a7584df55>@@@Z
	??$_Reallocate_grow_by@V<lambda_c1b8c41cb4019640539cfd828748c4d4>@@ID@?$basic_string@DU?$char_traits@D@std@@V?$allocator@D@2@@std@@AAEAAV01@IV<lambda_c1b8c41cb4019640539cfd828748c4d4>@@ID@Z
	??$_Reallocate_grow_by@V<lambda_c3135ae829aeedc0a8af1bd1e887c66a>@@I_W@?$basic_string@_WU?$char_traits@_W@std@@V?$allocator@_W@2@@std@@AAEAAV01@IV<lambda_c3135ae829aeedc0a8af1bd1e887c66a>@@I_W@Z
	??$_Unfancy@D@std@@YAPADPAD@Z
	??$_Unfancy@PAVIAppender@plog@@@std@@YAPAPAVIAppender@plog@@PAPAV12@@Z
	??$_Unfancy@U_Container_proxy@std@@@std@@YAPAU_Container_proxy@0@PAU10@@Z
	??$_Unfancy@_W@std@@YAPA_WPA_W@Z
	??$_Uninitialized_move@PAPAVIAppender@plog@@V?$allocator@PAVIAppender@plog@@@std@@@std@@YAPAPAVIAppender@plog@@QAPAV12@0PAPAV12@AAV?$allocator@PAVIAppender@plog@@@0@@Z
	??$_Verify_range@_W@std@@YAXQB_W0@Z
	??$addressof@$$CBV?$_String_val@U?$_Simple_types@D@std@@@std@@@std@@YAPBV?$_String_val@U?$_Simple_types@D@std@@@0@ABV10@@Z
	??$addressof@$$CBV?$_String_val@U?$_Simple_types@_W@std@@@std@@@std@@YAPBV?$_String_val@U?$_Simple_types@_W@std@@@0@ABV10@@Z
	??$addressof@PAD@std@@YAPAPADAAPAD@Z
	??$addressof@PA_W@std@@YAPAPA_WAAPA_W@Z
	??$addressof@U_Container_base12@std@@@std@@YAPAU_Container_base12@0@AAU10@@Z
	??$addressof@U_Container_proxy@std@@@std@@YAPAU_Container_proxy@0@AAU10@@Z
	??$addressof@V?$_String_val@U?$_Simple_types@D@std@@@std@@@std@@YAPAV?$_String_val@U?$_Simple_types@D@std@@@0@AAV10@@Z
	??$addressof@V?$_String_val@U?$_Simple_types@_W@std@@@std@@@std@@YAPAV?$_String_val@U?$_Simple_types@_W@std@@@0@AAV10@@Z
	??$addressof@V?$_Vector_val@U?$_Simple_types@PAVIAppender@plog@@@std@@@std@@@std@@YAPAV?$_Vector_val@U?$_Simple_types@PAVIAppender@plog@@@std@@@0@AAV10@@Z
	??$addressof@V?$basic_string@DU?$char_traits@D@std@@V?$allocator@D@2@@std@@@std@@YAPAV?$basic_string@DU?$char_traits@D@std@@V?$allocator@D@2@@0@AAV10@@Z
	??$addressof@V?$basic_string@_WU?$char_traits@_W@std@@V?$allocator@_W@2@@std@@@std@@YAPAV?$basic_string@_WU?$char_traits@_W@std@@V?$allocator@_W@2@@0@AAV10@@Z
	??$addressof@V?$basic_stringbuf@_WU?$char_traits@_W@std@@V?$allocator@_W@2@@std@@@std@@YAPAV?$basic_stringbuf@_WU?$char_traits@_W@std@@V?$allocator@_W@2@@0@AAV10@@Z
	??$addressof@_W@std@@YAPA_WAA_W@Z
	??$assign@PB_W$0A@@?$basic_string@_WU?$char_traits@_W@std@@V?$allocator@_W@2@@std@@QAEAAV01@QB_W0@Z
	??$construct@PAVIAppender@plog@@ABQAV12@@?$_Default_allocator_traits@V?$allocator@PAVIAppender@plog@@@std@@@std@@SAXAAV?$allocator@PAVIAppender@plog@@@1@QAPAVIAppender@plog@@ABQAV34@@Z
	??$emplace_back@ABQAVIAppender@plog@@@?$vector@PAVIAppender@plog@@V?$allocator@PAVIAppender@plog@@@std@@@std@@QAEXABQAVIAppender@plog@@@Z
	??$exchange@PAU_Container_proxy@std@@$$T@std@@YAPAU_Container_proxy@0@AAPAU10@$$QA$$T@Z
	??$exchange@PAV_Facet_base@std@@PAV12@@std@@YAPAV_Facet_base@0@AAPAV10@$$QAPAV10@@Z
	??$flush@DU?$char_traits@D@std@@@std@@YAAAV?$basic_ostream@DU?$char_traits@D@std@@@0@AAV10@@Z
	??$forward@AAPAV_Facet_base@std@@@std@@YAAAPAV_Facet_base@0@AAPAV10@@Z
	??$forward@AAV?$allocator@D@std@@@std@@YAAAV?$allocator@D@0@AAV10@@Z
	??$forward@ABQAD@std@@YAABQADABQAD@Z
	??$forward@ABQAVIAppender@plog@@@std@@YAABQAVIAppender@plog@@ABQAV12@@Z
	??$forward@ABQA_W@std@@YAABQA_WABQA_W@Z
	??$forward@ABV?$allocator@_W@std@@@std@@YAABV?$allocator@_W@0@ABV10@@Z
	??$forward@PAU_Container_base12@std@@@std@@YA$$QAPAU_Container_base12@0@AAPAU10@@Z
	??$forward@V?$allocator@D@std@@@std@@YA$$QAV?$allocator@D@0@AAV10@@Z
	??$forward@V?$allocator@_W@std@@@std@@YA$$QAV?$allocator@_W@0@AAV10@@Z
	??$get@$0A@@plog@@YAPAV?$Logger@$0A@@0@XZ
	??$getline@_WU?$char_traits@_W@std@@V?$allocator@_W@2@@std@@YAAAV?$basic_istream@_WU?$char_traits@_W@std@@@0@$$QAV10@AAV?$basic_string@_WU?$char_traits@_W@std@@V?$allocator@_W@2@@0@_W@Z
	??$getline@_WU?$char_traits@_W@std@@V?$allocator@_W@2@@std@@YAAAV?$basic_istream@_WU?$char_traits@_W@std@@@0@AAV10@AAV?$basic_string@_WU?$char_traits@_W@std@@V?$allocator@_W@2@@0@_W@Z
	??$init@$0A@@plog@@YAAAV?$Logger@$0A@@0@W4Severity@0@PAVIAppender@0@@Z
	??$max@I@std@@YAABIABI0@Z
	??$max@J@std@@YAABJABJ0@Z
	??$max@PA_W@std@@YAABQA_WABQA_W0@Z
	??$min@I@std@@YAABIABI0@Z
	??$move@AAV?$allocator@D@std@@@std@@YA$$QAV?$allocator@D@0@AAV10@@Z
	??$move@AAV?$allocator@_W@std@@@std@@YA$$QAV?$allocator@_W@0@AAV10@@Z
	??$move@AAV?$basic_istream@_WU?$char_traits@_W@std@@@std@@@std@@YA$$QAV?$basic_istream@_WU?$char_traits@_W@std@@@0@AAV10@@Z
	??$setfill@_W@std@@YA?AU?$_Fillobj@_W@0@_W@Z
	??$use_facet@V?$ctype@_W@std@@@std@@YAABV?$ctype@_W@0@ABVlocale@0@@Z
	??$write@D@File@util@plog@@QAEHABV?$basic_string@DU?$char_traits@D@std@@V?$allocator@D@2@@std@@@Z
	??0?$ColorConsoleAppender@VTxtFormatter@plog@@@plog@@QAE@XZ
	??0?$ConsoleAppender@VTxtFormatter@plog@@@plog@@QAE@XZ
	??0?$Logger@$0A@@plog@@QAE@W4Severity@1@@Z
	??0?$RollingFileAppender@VCsvFormatter@plog@@V?$NativeEOLConverter@VUTF8Converter@plog@@@2@@plog@@QAE@PBDIH@Z
	??0?$Singleton@V?$Logger@$0A@@plog@@@util@plog@@QAE@XZ
	??0?$_Container_proxy_ptr12@V?$allocator@U_Container_proxy@std@@@std@@@std@@QAE@AAV?$allocator@U_Container_proxy@std@@@1@AAU_Container_base12@1@@Z
	??0?$_Fillobj@_W@std@@QAE@_W@Z
	??0?$_String_val@U?$_Simple_types@D@std@@@std@@QAE@XZ
	??0?$_String_val@U?$_Simple_types@_W@std@@@std@@QAE@XZ
	??0?$_Vector_const_iterator@V?$_Vector_val@U?$_Simple_types@PAVIAppender@plog@@@std@@@std@@@std@@QAE@PAPAVIAppender@plog@@PBU_Container_base12@1@@Z
	??0?$_Vector_iterator@V?$_Vector_val@U?$_Simple_types@PAVIAppender@plog@@@std@@@std@@@std@@QAE@PAPAVIAppender@plog@@PBU_Container_base12@1@@Z
	??0?$_Vector_val@U?$_Simple_types@PAVIAppender@plog@@@std@@@std@@QAE@XZ
	??0?$allocator@D@std@@QAE@XZ
	??0?$allocator@PAVIAppender@plog@@@std@@QAE@XZ
	??0?$allocator@_W@std@@QAE@XZ
	??0?$basic_istringstream@_WU?$char_traits@_W@std@@V?$allocator@_W@2@@std@@QAE@ABV?$basic_string@_WU?$char_traits@_W@std@@V?$allocator@_W@2@@1@H@Z
	??0?$basic_ostringstream@_WU?$char_traits@_W@std@@V?$allocator@_W@2@@std@@QAE@XZ
	??0?$basic_string@DU?$char_traits@D@std@@V?$allocator@D@2@@std@@QAE@$$QAV01@@Z
	??0?$basic_string@DU?$char_traits@D@std@@V?$allocator@D@2@@std@@QAE@ID@Z
	??0?$basic_string@DU?$char_traits@D@std@@V?$allocator@D@2@@std@@QAE@QBD@Z
	??0?$basic_string@DU?$char_traits@D@std@@V?$allocator@D@2@@std@@QAE@U_String_constructor_concat_tag@1@AAV01@1@Z
	??0?$basic_string@DU?$char_traits@D@std@@V?$allocator@D@2@@std@@QAE@XZ
	??0?$basic_string@_WU?$char_traits@_W@std@@V?$allocator@_W@2@@std@@QAE@$$QAV01@@Z
	??0?$basic_string@_WU?$char_traits@_W@std@@V?$allocator@_W@2@@std@@QAE@ABV?$allocator@_W@1@@Z
	??0?$basic_string@_WU?$char_traits@_W@std@@V?$allocator@_W@2@@std@@QAE@I_W@Z
	??0?$basic_string@_WU?$char_traits@_W@std@@V?$allocator@_W@2@@std@@QAE@QB_W@Z
	??0?$basic_string@_WU?$char_traits@_W@std@@V?$allocator@_W@2@@std@@QAE@XZ
	??0?$basic_stringbuf@_WU?$char_traits@_W@std@@V?$allocator@_W@2@@std@@QAE@ABV?$basic_string@_WU?$char_traits@_W@std@@V?$allocator@_W@2@@1@H@Z
	??0?$basic_stringbuf@_WU?$char_traits@_W@std@@V?$allocator@_W@2@@std@@QAE@H@Z
	??0?$fpos@U_Mbstatet@@@std@@QAE@_J@Z
	??0?$vector@PAVIAppender@plog@@V?$allocator@PAVIAppender@plog@@@std@@@std@@QAE@XZ
	??0Engine@@QAE@XZ
	??0File@util@plog@@QAE@XZ
	??0IAppender@plog@@QAE@XZ
	??0InstanceManager@@QAE@XZ
	??0KeyboardListener@@QAE@XZ
	??0LevelEditorScene@@QAE@XZ
	??0LevelScene@@QAE@XZ
	??0MouseListener@@QAE@XZ
	??0Mutex@util@plog@@QAE@XZ
	??0MutexLock@util@plog@@QAE@AAVMutex@12@@Z
	??0NonCopyable@util@plog@@IAE@XZ
	??0Record@plog@@QAE@W4Severity@1@PBDI1PBXH@Z
	??0Scene@@QAE@XZ
	??0Timer@@QAE@XZ
	??0Window@@QAE@XZ
	??0_Bxty@?$_String_val@U?$_Simple_types@D@std@@@std@@QAE@XZ
	??0_Bxty@?$_String_val@U?$_Simple_types@_W@std@@@std@@QAE@XZ
	??0_Container_base12@std@@QAE@XZ
	??0_Container_proxy@std@@QAE@PAU_Container_base12@1@@Z
	??0_Iterator_base12@std@@QAE@XZ
	??0_Sentry_base@?$basic_istream@_WU?$char_traits@_W@std@@@std@@QAE@AAV12@@Z
	??0_Sentry_base@?$basic_ostream@DU?$char_traits@D@std@@@std@@QAE@AAV12@@Z
	??0_Sentry_base@?$basic_ostream@_WU?$char_traits@_W@std@@@std@@QAE@AAV12@@Z
	??0bad_alloc@std@@AAE@QBD@Z
	??0bad_alloc@std@@QAE@ABV01@@Z
	??0bad_array_new_length@std@@QAE@ABV01@@Z
	??0bad_array_new_length@std@@QAE@XZ
	??0bad_cast@std@@QAE@ABV01@@Z
	??0bad_cast@std@@QAE@XZ
	??0exception@std@@QAE@ABV01@@Z
	??0exception@std@@QAE@QBDH@Z
	??0sentry@?$basic_istream@_WU?$char_traits@_W@std@@@std@@QAE@AAV12@_N@Z
	??0sentry@?$basic_ostream@DU?$char_traits@D@std@@@std@@QAE@AAV12@@Z
	??0sentry@?$basic_ostream@_WU?$char_traits@_W@std@@@std@@QAE@AAV12@@Z
	??1?$ColorConsoleAppender@VTxtFormatter@plog@@@plog@@UAE@XZ
	??1?$ConsoleAppender@VTxtFormatter@plog@@@plog@@UAE@XZ
	??1?$Logger@$0A@@plog@@UAE@XZ
	??1?$RollingFileAppender@VCsvFormatter@plog@@V?$NativeEOLConverter@VUTF8Converter@plog@@@2@@plog@@UAE@XZ
	??1?$Singleton@V?$Logger@$0A@@plog@@@util@plog@@QAE@XZ
	??1?$_Compressed_pair@V?$allocator@D@std@@V?$_String_val@U?$_Simple_types@D@std@@@2@$00@std@@QAE@XZ
	??1?$_Compressed_pair@V?$allocator@_W@std@@V?$_String_val@U?$_Simple_types@_W@std@@@2@$00@std@@QAE@XZ
	??1?$_Container_proxy_ptr12@V?$allocator@U_Container_proxy@std@@@std@@@std@@QAE@XZ
	??1?$_String_val@U?$_Simple_types@D@std@@@std@@QAE@XZ
	??1?$_String_val@U?$_Simple_types@_W@std@@@std@@QAE@XZ
	??1?$_Vector_const_iterator@V?$_Vector_val@U?$_Simple_types@PAVIAppender@plog@@@std@@@std@@@std@@QAE@XZ
	??1?$_Vector_iterator@V?$_Vector_val@U?$_Simple_types@PAVIAppender@plog@@@std@@@std@@@std@@QAE@XZ
	??1?$basic_istringstream@_WU?$char_traits@_W@std@@V?$allocator@_W@2@@std@@UAE@XZ
	??1?$basic_ostringstream@_WU?$char_traits@_W@std@@V?$allocator@_W@2@@std@@UAE@XZ
	??1?$basic_string@DU?$char_traits@D@std@@V?$allocator@D@2@@std@@QAE@XZ
	??1?$basic_string@_WU?$char_traits@_W@std@@V?$allocator@_W@2@@std@@QAE@XZ
	??1?$basic_stringbuf@_WU?$char_traits@_W@std@@V?$allocator@_W@2@@std@@UAE@XZ
	??1?$unique_ptr@V_Facet_base@std@@U?$default_delete@V_Facet_base@std@@@2@@std@@QAE@XZ
	??1?$vector@PAVIAppender@plog@@V?$allocator@PAVIAppender@plog@@@std@@@std@@QAE@XZ
	??1Engine@@QAE@XZ
	??1File@util@plog@@QAE@XZ
	??1IAppender@plog@@UAE@XZ
	??1InstanceManager@@QAE@XZ
	??1KeyboardListener@@QAE@XZ
	??1LevelEditorScene@@QAE@XZ
	??1LevelScene@@QAE@XZ
	??1MouseListener@@QAE@XZ
	??1Mutex@util@plog@@QAE@XZ
	??1MutexLock@util@plog@@QAE@XZ
	??1Record@plog@@UAE@XZ
	??1Timer@@QAE@XZ
	??1Window@@QAE@XZ
	??1_Bxty@?$_String_val@U?$_Simple_types@D@std@@@std@@QAE@XZ
	??1_Bxty@?$_String_val@U?$_Simple_types@_W@std@@@std@@QAE@XZ
	??1_Iterator_base12@std@@QAE@XZ
	??1_Sentry_base@?$basic_istream@_WU?$char_traits@_W@std@@@std@@QAE@XZ
	??1_Sentry_base@?$basic_ostream@DU?$char_traits@D@std@@@std@@QAE@XZ
	??1_Sentry_base@?$basic_ostream@_WU?$char_traits@_W@std@@@std@@QAE@XZ
	??1bad_alloc@std@@UAE@XZ
	??1bad_array_new_length@std@@UAE@XZ
	??1bad_cast@std@@UAE@XZ
	??1exception@std@@UAE@XZ
	??1locale@std@@QAE@XZ
	??1sentry@?$basic_istream@_WU?$char_traits@_W@std@@@std@@QAE@XZ
	??1sentry@?$basic_ostream@DU?$char_traits@D@std@@@std@@QAE@XZ
	??1sentry@?$basic_ostream@_WU?$char_traits@_W@std@@@std@@QAE@XZ
	??2@YAPAXIPAX@Z
	??4?$basic_string@DU?$char_traits@D@std@@V?$allocator@D@2@@std@@QAEAAV01@$$QAV01@@Z
	??4?$basic_string@DU?$char_traits@D@std@@V?$allocator@D@2@@std@@QAEAAV01@QBD@Z
	??4?$basic_string@_WU?$char_traits@_W@std@@V?$allocator@_W@2@@std@@QAEAAV01@$$QAV01@@Z
	??6detail@plog@@YAXAAV?$basic_ostringstream@_WU?$char_traits@_W@std@@V?$allocator@_W@2@@std@@PBD@Z
	??8?$_Vector_const_iterator@V?$_Vector_val@U?$_Simple_types@PAVIAppender@plog@@@std@@@std@@@std@@QBE_NABV01@@Z
	??9?$_Vector_const_iterator@V?$_Vector_val@U?$_Simple_types@PAVIAppender@plog@@@std@@@std@@@std@@QBE_NABV01@@Z
	??A?$basic_string@DU?$char_traits@D@std@@V?$allocator@D@2@@std@@QAEAADI@Z
	??A?$basic_string@_WU?$char_traits@_W@std@@V?$allocator@_W@2@@std@@QAEAA_WI@Z
	??A?$basic_string@_WU?$char_traits@_W@std@@V?$allocator@_W@2@@std@@QBEAB_WI@Z
	??B?$fpos@U_Mbstatet@@@std@@QBE_JXZ
	??Bsentry@?$basic_istream@_WU?$char_traits@_W@std@@@std@@QBE_NXZ
	??Bsentry@?$basic_ostream@DU?$char_traits@D@std@@@std@@QBE_NXZ
	??Bsentry@?$basic_ostream@_WU?$char_traits@_W@std@@@std@@QBE_NXZ
	??D?$_Vector_const_iterator@V?$_Vector_val@U?$_Simple_types@PAVIAppender@plog@@@std@@@std@@@std@@QBEABQAVIAppender@plog@@XZ
	??D?$_Vector_iterator@V?$_Vector_val@U?$_Simple_types@PAVIAppender@plog@@@std@@@std@@@std@@QBEAAPAVIAppender@plog@@XZ
	??E?$_Vector_const_iterator@V?$_Vector_val@U?$_Simple_types@PAVIAppender@plog@@@std@@@std@@@std@@QAEAAV01@XZ
	??E?$_Vector_iterator@V?$_Vector_val@U?$_Simple_types@PAVIAppender@plog@@@std@@@std@@@std@@QAEAAV01@XZ
	??R<lambda_03628ca18370b1f44a99b655e704819b>@@QBEXQA_WIQB_W@Z
	??R<lambda_2fb699096920f2dc628cb0826b07831d>@@QBEXQA_WQB_WI1I@Z
	??R<lambda_38fb7828f6004e9a4c6a38bfc6df7f44>@@QBEXQA_WQB_WI_W@Z
	??R<lambda_4755c59c3a9e60a5b049353a7584df55>@@QBEXQA_WQB_WI@Z
	??R<lambda_9366063389c5f42a00a5088cf24e69de>@@QBEXQADIQBD@Z
	??R<lambda_c1b8c41cb4019640539cfd828748c4d4>@@QBEXQADQBDIID@Z
	??R<lambda_c3135ae829aeedc0a8af1bd1e887c66a>@@QBEXQA_WQB_WII_W@Z
	??R<lambda_c6753c90be971fc9cc00b4f35f237a75>@@QBEXQADID@Z
	??R<lambda_ce475b7b8bd67a606e496821c303ff69>@@QBEXQA_WI_W@Z
	??R?$default_delete@V_Facet_base@std@@@std@@QBEXPAV_Facet_base@1@@Z
	??Y?$Logger@$0A@@plog@@QAEXABVRecord@1@@Z
	??Y?$basic_string@_WU?$char_traits@_W@std@@V?$allocator@_W@2@@std@@QAEAAV01@_W@Z
	??_D?$basic_istringstream@_WU?$char_traits@_W@std@@V?$allocator@_W@2@@std@@QAEXXZ
	??_D?$basic_ostringstream@_WU?$char_traits@_W@std@@V?$allocator@_W@2@@std@@QAEXXZ
	??__Flogger@?1???$init@$0A@@plog@@YAAAV?$Logger@$0A@@0@W4Severity@0@PAVIAppender@0@@Z@YAXXZ
	?ChangeScene@Window@@QAEXH@Z
	?CursorPosCallback@MouseListener@@SAXPAUGLFWwindow@@NN@Z
	?DeleteCriticalSection@plog@@YAXPAUCRITICAL_SECTION@1@@Z
	?EndFrame@MouseListener@@SAXXZ
	?EnterCriticalSection@plog@@YAXPAUCRITICAL_SECTION@1@@Z
	?GetConsoleScreenBufferInfo@plog@@YAHPAXPAUCONSOLE_SCREEN_BUFFER_INFO@1@@Z
	?GetDx@MouseListener@@SAMXZ
	?GetDy@MouseListener@@SAMXZ
	?GetInstance@KeyboardListener@@SAPAV1@XZ
	?GetInstance@MouseListener@@SAPAV1@XZ
	?GetInstance@Timer@@SAPAV1@XZ
	?GetInstance@Window@@SAPAV1@XZ
	?GetKeyNumber@KeyboardListener@@QAEHXZ
	?GetMouseButtonNumber@MouseListener@@QAEHXZ
	?GetScrollX@MouseListener@@SAMXZ
	?GetScrollY@MouseListener@@SAMXZ
	?GetTime@Timer@@QAEMXZ
	?GetX@MouseListener@@SAMXZ
	?GetY@MouseListener@@SAMXZ
	?InitializeCriticalSection@plog@@YAXPAUCRITICAL_SECTION@1@@Z
	?IsButtonDown@MouseListener@@SA_NH@Z
	?IsKeyPressed@KeyboardListener@@SA_NH@Z
	?KeyCallback@KeyboardListener@@SAXPAUGLFWwindow@@HHHH@Z
	?LeaveCriticalSection@plog@@YAXPAUCRITICAL_SECTION@1@@Z
	?MouseButtonCallback@MouseListener@@SAXPAUGLFWwindow@@HHH@Z
	?Run@Window@@QAEXXZ
	?ScrollCallback@MouseListener@@SAXPAUGLFWwindow@@NN@Z
	?Update@LevelEditorScene@@UAEXM@Z
	?Update@LevelScene@@UAEXM@Z
	?_Adjust_manually_vector_aligned@std@@YAXAAPAXAAI@Z
	?_Adopt@_Iterator_base12@std@@QAEXPBU_Container_base12@2@@Z
	?_Allocate@_Default_allocate_traits@std@@SAPAXI@Z
	?_Become_small@?$basic_string@_WU?$char_traits@_W@std@@V?$allocator@_W@2@@std@@AAEXXZ
	?_Calculate_growth@?$basic_string@DU?$char_traits@D@std@@V?$allocator@D@2@@std@@ABEII@Z
	?_Calculate_growth@?$basic_string@DU?$char_traits@D@std@@V?$allocator@D@2@@std@@CAIIII@Z
	?_Calculate_growth@?$basic_string@_WU?$char_traits@_W@std@@V?$allocator@_W@2@@std@@ABEII@Z
	?_Calculate_growth@?$basic_string@_WU?$char_traits@_W@std@@V?$allocator@_W@2@@std@@CAIIII@Z
	?_Calculate_growth@?$vector@PAVIAppender@plog@@V?$allocator@PAVIAppender@plog@@@std@@@std@@ABEII@Z
	?_Change_array@?$vector@PAVIAppender@plog@@V?$allocator@PAVIAppender@plog@@@std@@@std@@AAEXQAPAVIAppender@plog@@II@Z
	?_Check_offset@?$_String_val@U?$_Simple_types@_W@std@@@std@@QBEXI@Z
	?_Compat@?$_Vector_const_iterator@V?$_Vector_val@U?$_Simple_types@PAVIAppender@plog@@@std@@@std@@@std@@QBEXABV12@@Z
	?_Destroy@?$vector@PAVIAppender@plog@@V?$allocator@PAVIAppender@plog@@@std@@@std@@AAEXPAPAVIAppender@plog@@0@Z
	?_Eos@?$basic_string@DU?$char_traits@D@std@@V?$allocator@D@2@@std@@AAEXI@Z
	?_Eos@?$basic_string@_WU?$char_traits@_W@std@@V?$allocator@_W@2@@std@@AAEXI@Z
	?_Get_first@?$_Compressed_pair@U?$default_delete@V_Facet_base@std@@@std@@PAV_Facet_base@2@$00@std@@QAEAAU?$default_delete@V_Facet_base@std@@@2@XZ
	?_Get_first@?$_Compressed_pair@V?$allocator@D@std@@V?$_String_val@U?$_Simple_types@D@std@@@2@$00@std@@QAEAAV?$allocator@D@2@XZ
	?_Get_first@?$_Compressed_pair@V?$allocator@D@std@@V?$_String_val@U?$_Simple_types@D@std@@@2@$00@std@@QBEABV?$allocator@D@2@XZ
	?_Get_first@?$_Compressed_pair@V?$allocator@PAVIAppender@plog@@@std@@V?$_Vector_val@U?$_Simple_types@PAVIAppender@plog@@@std@@@2@$00@std@@QAEAAV?$allocator@PAVIAppender@plog@@@2@XZ
	?_Get_first@?$_Compressed_pair@V?$allocator@PAVIAppender@plog@@@std@@V?$_Vector_val@U?$_Simple_types@PAVIAppender@plog@@@std@@@2@$00@std@@QBEABV?$allocator@PAVIAppender@plog@@@2@XZ
	?_Get_first@?$_Compressed_pair@V?$allocator@_W@std@@V?$_String_val@U?$_Simple_types@_W@std@@@2@$00@std@@QAEAAV?$allocator@_W@2@XZ
	?_Get_first@?$_Compressed_pair@V?$allocator@_W@std@@V?$_String_val@U?$_Simple_types@_W@std@@@2@$00@std@@QBEABV?$allocator@_W@2@XZ
	?_Getal@?$basic_string@DU?$char_traits@D@std@@V?$allocator@D@2@@std@@AAEAAV?$allocator@D@2@XZ
	?_Getal@?$basic_string@DU?$char_traits@D@std@@V?$allocator@D@2@@std@@ABEABV?$allocator@D@2@XZ
	?_Getal@?$basic_string@_WU?$char_traits@_W@std@@V?$allocator@_W@2@@std@@AAEAAV?$allocator@_W@2@XZ
	?_Getal@?$basic_string@_WU?$char_traits@_W@std@@V?$allocator@_W@2@@std@@ABEABV?$allocator@_W@2@XZ
	?_Getal@?$vector@PAVIAppender@plog@@V?$allocator@PAVIAppender@plog@@@std@@@std@@AAEAAV?$allocator@PAVIAppender@plog@@@2@XZ
	?_Getal@?$vector@PAVIAppender@plog@@V?$allocator@PAVIAppender@plog@@@std@@@std@@ABEABV?$allocator@PAVIAppender@plog@@@2@XZ
	?_Getcont@_Iterator_base12@std@@QBEPBU_Container_base12@2@XZ
	?_Getfacet@locale@std@@QBEPBVfacet@12@I@Z
	?_Getstate@?$basic_stringbuf@_WU?$char_traits@_W@std@@V?$allocator@_W@2@@std@@CAHH@Z
	?_Init@?$basic_stringbuf@_WU?$char_traits@_W@std@@V?$allocator@_W@2@@std@@IAEXPB_WIH@Z
	?_Large_string_engaged@?$_String_val@U?$_Simple_types@D@std@@@std@@QBE_NXZ
	?_Large_string_engaged@?$_String_val@U?$_Simple_types@_W@std@@@std@@QBE_NXZ
	?_Maklocwcs@std@@YAPA_WPB_W@Z
	?_Memcpy_val_from@?$basic_string@DU?$char_traits@D@std@@V?$allocator@D@2@@std@@AAEXABV12@@Z
	?_Memcpy_val_from@?$basic_string@_WU?$char_traits@_W@std@@V?$allocator@_W@2@@std@@AAEXABV12@@Z
	?_Move_assign@?$basic_string@DU?$char_traits@D@std@@V?$allocator@D@2@@std@@AAEXAAV12@U_Equal_allocators@2@@Z
	?_Move_assign@?$basic_string@_WU?$char_traits@_W@std@@V?$allocator@_W@2@@std@@AAEXAAV12@U_Equal_allocators@2@@Z
	?_Myptr@?$_String_val@U?$_Simple_types@D@std@@@std@@QAEPADXZ
	?_Myptr@?$_String_val@U?$_Simple_types@D@std@@@std@@QBEPBDXZ
	?_Myptr@?$_String_val@U?$_Simple_types@_W@std@@@std@@QAEPA_WXZ
	?_Myptr@?$_String_val@U?$_Simple_types@_W@std@@@std@@QBEPB_WXZ
	?_Orphan_all@_Container_base12@std@@QAEXXZ
	?_Orphan_me@_Iterator_base12@std@@QAEXXZ
	?_Orphan_range@?$vector@PAVIAppender@plog@@V?$allocator@PAVIAppender@plog@@@std@@@std@@ABEXPAPAVIAppender@plog@@0@Z
	?_Release@_Basic_container_proxy_ptr12@std@@QAEXXZ
	?_Swap_proxy_and_iterators@?$basic_string@DU?$char_traits@D@std@@V?$allocator@D@2@@std@@AAEXAAV12@@Z
	?_Swap_proxy_and_iterators@?$basic_string@_WU?$char_traits@_W@std@@V?$allocator@_W@2@@std@@AAEXAAV12@@Z
	?_Swap_proxy_and_iterators@_Container_base12@std@@QAEXAAU12@@Z
	?_Take_contents@?$basic_string@DU?$char_traits@D@std@@V?$allocator@D@2@@std@@AAEXAAV12@U?$integral_constant@_N$00@2@@Z
	?_Take_contents@?$basic_string@_WU?$char_traits@_W@std@@V?$allocator@_W@2@@std@@AAEXAAV12@U?$integral_constant@_N$00@2@@Z
	?_Throw_bad_array_new_length@std@@YAXXZ
	?_Throw_bad_cast@std@@YAXXZ
	?_Tidy@?$basic_stringbuf@_WU?$char_traits@_W@std@@V?$allocator@_W@2@@std@@IAEXXZ
	?_Tidy@?$vector@PAVIAppender@plog@@V?$allocator@PAVIAppender@plog@@@std@@@std@@AAEXXZ
	?_Tidy_deallocate@?$basic_string@DU?$char_traits@D@std@@V?$allocator@D@2@@std@@AAEXXZ
	?_Tidy_deallocate@?$basic_string@_WU?$char_traits@_W@std@@V?$allocator@_W@2@@std@@AAEXXZ
	?_Tidy_init@?$basic_string@DU?$char_traits@D@std@@V?$allocator@D@2@@std@@AAEXXZ
	?_Tidy_init@?$basic_string@_WU?$char_traits@_W@std@@V?$allocator@_W@2@@std@@AAEXXZ
	?_Umove@?$vector@PAVIAppender@plog@@V?$allocator@PAVIAppender@plog@@@std@@@std@@AAEPAPAVIAppender@plog@@PAPAV34@00@Z
	?_Umove_if_noexcept1@?$vector@PAVIAppender@plog@@V?$allocator@PAVIAppender@plog@@@std@@@std@@AAEXPAPAVIAppender@plog@@00U?$integral_constant@_N$00@2@@Z
	?_Umove_if_noexcept@?$vector@PAVIAppender@plog@@V?$allocator@PAVIAppender@plog@@@std@@@std@@AAEXPAPAVIAppender@plog@@00@Z
	?_Xlen_string@std@@YAXXZ
	?_Xlength@?$vector@PAVIAppender@plog@@V?$allocator@PAVIAppender@plog@@@std@@@std@@CAXXZ
	?_Xran@?$_String_val@U?$_Simple_types@_W@std@@@std@@SAXXZ
	?__empty_global_delete@@YAXPAX@Z
	?__empty_global_delete@@YAXPAXI@Z
	?addAppender@?$Logger@$0A@@plog@@QAEAAV12@PAVIAppender@2@@Z
	?allocate@?$allocator@D@std@@QAEPADI@Z
	?allocate@?$allocator@PAVIAppender@plog@@@std@@QAEPAPAVIAppender@plog@@I@Z
	?allocate@?$allocator@U_Container_proxy@std@@@std@@QAEPAU_Container_proxy@2@I@Z
	?allocate@?$allocator@_W@std@@QAEPA_WI@Z
	?append@?$basic_string@DU?$char_traits@D@std@@V?$allocator@D@2@@std@@QAEAAV12@ID@Z
	?append@?$basic_string@_WU?$char_traits@_W@std@@V?$allocator@_W@2@@std@@QAEAAV12@I_W@Z
	?append@?$basic_string@_WU?$char_traits@_W@std@@V?$allocator@_W@2@@std@@QAEAAV12@QB_W@Z
	?append@?$basic_string@_WU?$char_traits@_W@std@@V?$allocator@_W@2@@std@@QAEAAV12@QB_WI@Z
	?assign@?$_Narrow_char_traits@DH@std@@SAPADQADID@Z
	?assign@?$_Narrow_char_traits@DH@std@@SAXAADABD@Z
	?assign@?$_WChar_traits@_W@std@@SAPA_WQA_WI_W@Z
	?assign@?$_WChar_traits@_W@std@@SAXAA_WAB_W@Z
	?assign@?$basic_string@DU?$char_traits@D@std@@V?$allocator@D@2@@std@@QAEAAV12@ID@Z
	?assign@?$basic_string@DU?$char_traits@D@std@@V?$allocator@D@2@@std@@QAEAAV12@QBD@Z
	?assign@?$basic_string@DU?$char_traits@D@std@@V?$allocator@D@2@@std@@QAEAAV12@QBDI@Z
	?assign@?$basic_string@_WU?$char_traits@_W@std@@V?$allocator@_W@2@@std@@QAEAAV12@I_W@Z
	?assign@?$basic_string@_WU?$char_traits@_W@std@@V?$allocator@_W@2@@std@@QAEAAV12@QB_W@Z
	?assign@?$basic_string@_WU?$char_traits@_W@std@@V?$allocator@_W@2@@std@@QAEAAV12@QB_WI@Z
	?begin@?$vector@PAVIAppender@plog@@V?$allocator@PAVIAppender@plog@@@std@@@std@@QAE?AV?$_Vector_iterator@V?$_Vector_val@U?$_Simple_types@PAVIAppender@plog@@@std@@@std@@@2@XZ
	?buildFileName@?$RollingFileAppender@VCsvFormatter@plog@@V?$NativeEOLConverter@VUTF8Converter@plog@@@2@@plog@@AAE?AV?$basic_string@_WU?$char_traits@_W@std@@V?$allocator@_W@2@@std@@H@Z
	?c_str@?$basic_string@DU?$char_traits@D@std@@V?$allocator@D@2@@std@@QBEPBDXZ
	?c_str@?$basic_string@_WU?$char_traits@_W@std@@V?$allocator@_W@2@@std@@QBEPB_WXZ
	?capacity@?$vector@PAVIAppender@plog@@V?$allocator@PAVIAppender@plog@@@std@@@std@@QBEIXZ
	?checkSeverity@?$Logger@$0A@@plog@@QBE_NW4Severity@2@@Z
	?clear@?$basic_string@_WU?$char_traits@_W@std@@V?$allocator@_W@2@@std@@QAEXXZ
	?close@File@util@plog@@QAEXXZ
	?convert@?$NativeEOLConverter@VUTF8Converter@plog@@@plog@@SA?AV?$basic_string@DU?$char_traits@D@std@@V?$allocator@D@2@@std@@ABV?$basic_string@_WU?$char_traits@_W@std@@V?$allocator@_W@2@@4@@Z
	?convert@UTF8Converter@plog@@SA?AV?$basic_string@DU?$char_traits@D@std@@V?$allocator@D@2@@std@@ABV?$basic_string@_WU?$char_traits@_W@std@@V?$allocator@_W@2@@4@@Z
	?copy@?$_Char_traits@DH@std@@SAPADQADQBDI@Z
	?copy@?$_Char_traits@_WG@std@@SAPA_WQA_WQB_WI@Z
	?data@?$basic_string@DU?$char_traits@D@std@@V?$allocator@D@2@@std@@QBEPBDXZ
	?data@?$basic_string@_WU?$char_traits@_W@std@@V?$allocator@_W@2@@std@@QBEPB_WXZ
	?deallocate@?$_Default_allocator_traits@V?$allocator@U_Container_proxy@std@@@std@@@std@@SAXAAV?$allocator@U_Container_proxy@std@@@2@QAU_Container_proxy@2@I@Z
	?deallocate@?$allocator@D@std@@QAEXQADI@Z
	?deallocate@?$allocator@PAVIAppender@plog@@@std@@QAEXQAPAVIAppender@plog@@I@Z
	?deallocate@?$allocator@_W@std@@QAEXQA_WI@Z
	?empty@?$basic_string@DU?$char_traits@D@std@@V?$allocator@D@2@@std@@QBE_NXZ
	?empty@?$basic_string@_WU?$char_traits@_W@std@@V?$allocator@_W@2@@std@@QBE_NXZ
	?end@?$vector@PAVIAppender@plog@@V?$allocator@PAVIAppender@plog@@@std@@@std@@QAE?AV?$_Vector_iterator@V?$_Vector_val@U?$_Simple_types@PAVIAppender@plog@@@std@@@std@@@2@XZ
	?eof@?$_Narrow_char_traits@DH@std@@SAHXZ
	?eof@?$_WChar_traits@_W@std@@SAGXZ
	?eq@?$_WChar_traits@_W@std@@SA_NAB_W0@Z
	?eq_int_type@?$_Narrow_char_traits@DH@std@@SA_NABH0@Z
	?eq_int_type@?$_WChar_traits@_W@std@@SA_NABG0@Z
	?erase@?$basic_string@_WU?$char_traits@_W@std@@V?$allocator@_W@2@@std@@QAEAAV12@I@Z
	?findExtensionDot@util@plog@@YAPB_WPB_W@Z
	?fixLineEndings@?$NativeEOLConverter@VUTF8Converter@plog@@@plog@@CA?AV?$basic_string@_WU?$char_traits@_W@std@@V?$allocator@_W@2@@std@@ABV34@@Z
	?format@?$CsvFormatterImpl@$0A@@plog@@SA?AV?$basic_string@_WU?$char_traits@_W@std@@V?$allocator@_W@2@@std@@ABVRecord@2@@Z
	?format@?$TxtFormatterImpl@$0A@@plog@@SA?AV?$basic_string@_WU?$char_traits@_W@std@@V?$allocator@_W@2@@std@@ABVRecord@2@@Z
	?ftime@util@plog@@YAXPAUtimeb@@@Z
	?getFile@Record@plog@@UBEPBDXZ
	?getFunc@Record@plog@@UBEPBDXZ
	?getInstance@?$Singleton@V?$Logger@$0A@@plog@@@util@plog@@SAPAV?$Logger@$0A@@3@XZ
	?getInstanceId@Record@plog@@UBEHXZ
	?getLine@Record@plog@@UBEIXZ
	?getMessage@Record@plog@@UBEPB_WXZ
	?getObject@Record@plog@@UBEPBXXZ
	?getSeverity@Record@plog@@UBE?AW4Severity@2@XZ
	?getTid@Record@plog@@UBEIXZ
	?getTime@Record@plog@@UBEABUtimeb@@XZ
	?get_allocator@?$basic_string@_WU?$char_traits@_W@std@@V?$allocator@_W@2@@std@@QBE?AV?$allocator@_W@2@XZ
	?gettid@util@plog@@YAIXZ
	?gmtime_s@util@plog@@YAXPAUtm@@PB_J@Z
	?header@?$CsvFormatterImpl@$0A@@plog@@SA?AV?$basic_string@_WU?$char_traits@_W@std@@V?$allocator@_W@2@@std@@XZ
	?header@?$NativeEOLConverter@VUTF8Converter@plog@@@plog@@SA?AV?$basic_string@DU?$char_traits@D@std@@V?$allocator@D@2@@std@@ABV?$basic_string@_WU?$char_traits@_W@std@@V?$allocator@_W@2@@4@@Z
	?header@UTF8Converter@plog@@SA?AV?$basic_string@DU?$char_traits@D@std@@V?$allocator@D@2@@std@@ABV?$basic_string@_WU?$char_traits@_W@std@@V?$allocator@_W@2@@4@@Z
	?init@Window@@AAEXXZ
	?init@plog@@YAAAV?$Logger@$0A@@1@W4Severity@1@PAVIAppender@1@@Z
	?left@std@@YAAAVios_base@1@AAV21@@Z
	?length@?$_Narrow_char_traits@DH@std@@SAIQBD@Z
	?length@?$_WChar_traits@_W@std@@SAIPB_W@Z
	?length@?$basic_string@_WU?$char_traits@_W@std@@V?$allocator@_W@2@@std@@QBEIXZ
	?localtime_s@util@plog@@YAXPAUtm@@PB_J@Z
	?lock@Mutex@util@plog@@AAEXXZ
	?loop@Window@@AAEXXZ
	?max@?$numeric_limits@H@std@@SAHXZ
	?max_size@?$_Default_allocator_traits@V?$allocator@D@std@@@std@@SAIABV?$allocator@D@2@@Z
	?max_size@?$_Default_allocator_traits@V?$allocator@PAVIAppender@plog@@@std@@@std@@SAIABV?$allocator@PAVIAppender@plog@@@2@@Z
	?max_size@?$_Default_allocator_traits@V?$allocator@_W@std@@@std@@SAIABV?$allocator@_W@2@@Z
	?max_size@?$basic_string@DU?$char_traits@D@std@@V?$allocator@D@2@@std@@QBEIXZ
	?max_size@?$basic_string@_WU?$char_traits@_W@std@@V?$allocator@_W@2@@std@@QBEIXZ
	?max_size@?$vector@PAVIAppender@plog@@V?$allocator@PAVIAppender@plog@@@std@@@std@@QBEIXZ
	?move@?$_Char_traits@DH@std@@SAPADQADQBDI@Z
	?move@?$_Char_traits@_WG@std@@SAPA_WQA_WQB_WI@Z
	?not_eof@?$_WChar_traits@_W@std@@SAGABG@Z
	?open@File@util@plog@@QAEJPB_W@Z
	?openLogFile@?$RollingFileAppender@VCsvFormatter@plog@@V?$NativeEOLConverter@VUTF8Converter@plog@@@2@@plog@@AAEXXZ
	?overflow@?$basic_stringbuf@_WU?$char_traits@_W@std@@V?$allocator@_W@2@@std@@MAEGG@Z
	?pbackfail@?$basic_stringbuf@_WU?$char_traits@_W@std@@V?$allocator@_W@2@@std@@MAEGG@Z
	?pointer_to@?$pointer_traits@PA_W@std@@SAPA_WAA_W@Z
	?processFuncName@util@plog@@YA?AV?$basic_string@DU?$char_traits@D@std@@V?$allocator@D@2@@std@@PBD@Z
	?push_back@?$basic_string@_WU?$char_traits@_W@std@@V?$allocator@_W@2@@std@@QAEX_W@Z
	?push_back@?$vector@PAVIAppender@plog@@V?$allocator@PAVIAppender@plog@@@std@@@std@@QAEXABQAVIAppender@plog@@@Z
	?ref@Record@plog@@QAEAAV12@XZ
	?release@?$unique_ptr@V_Facet_base@std@@U?$default_delete@V_Facet_base@std@@@2@@std@@QAEPAV_Facet_base@2@XZ
	?rename@File@util@plog@@SAHPB_W0@Z
	?reserve@?$basic_string@_WU?$char_traits@_W@std@@V?$allocator@_W@2@@std@@QAEXI@Z
	?resetColor@?$ColorConsoleAppender@VTxtFormatter@plog@@@plog@@AAEXXZ
	?resize@?$basic_string@DU?$char_traits@D@std@@V?$allocator@D@2@@std@@QAEXID@Z
	?resize@?$basic_string@_WU?$char_traits@_W@std@@V?$allocator@_W@2@@std@@QAEXI_W@Z
	?rollLogFiles@?$RollingFileAppender@VCsvFormatter@plog@@V?$NativeEOLConverter@VUTF8Converter@plog@@@2@@plog@@QAEXXZ
	?seek@File@util@plog@@QAEJJH@Z
	?seekoff@?$basic_stringbuf@_WU?$char_traits@_W@std@@V?$allocator@_W@2@@std@@MAE?AV?$fpos@U_Mbstatet@@@2@_JHH@Z
	?seekpos@?$basic_stringbuf@_WU?$char_traits@_W@std@@V?$allocator@_W@2@@std@@MAE?AV?$fpos@U_Mbstatet@@@2@V32@H@Z
	?setColor@?$ColorConsoleAppender@VTxtFormatter@plog@@@plog@@AAEXW4Severity@2@@Z
	?severityToString@plog@@YAPBDW4Severity@1@@Z
	?size@?$basic_string@DU?$char_traits@D@std@@V?$allocator@D@2@@std@@QBEIXZ
	?size@?$basic_string@_WU?$char_traits@_W@std@@V?$allocator@_W@2@@std@@QBEIXZ
	?splitFileName@util@plog@@YAXPB_WAAV?$basic_string@_WU?$char_traits@_W@std@@V?$allocator@_W@2@@std@@1@Z
	?str@?$basic_ostringstream@_WU?$char_traits@_W@std@@V?$allocator@_W@2@@std@@QBE?AV?$basic_string@_WU?$char_traits@_W@std@@V?$allocator@_W@2@@2@XZ
	?str@?$basic_stringbuf@_WU?$char_traits@_W@std@@V?$allocator@_W@2@@std@@QBE?AV?$basic_string@_WU?$char_traits@_W@std@@V?$allocator@_W@2@@2@XZ
	?toNarrow@util@plog@@YA?AV?$basic_string@DU?$char_traits@D@std@@V?$allocator@D@2@@std@@ABV?$basic_string@_WU?$char_traits@_W@std@@V?$allocator@_W@2@@4@J@Z
	?toWide@util@plog@@YA?AV?$basic_string@_WU?$char_traits@_W@std@@V?$allocator@_W@2@@std@@PBD@Z
	?to_char_type@?$_WChar_traits@_W@std@@SA_WABG@Z
	?to_int_type@?$_WChar_traits@_W@std@@SAGAB_W@Z
	?underflow@?$basic_stringbuf@_WU?$char_traits@_W@std@@V?$allocator@_W@2@@std@@MAEGXZ
	?unlink@File@util@plog@@SAHPB_W@Z
	?unlock@Mutex@util@plog@@AAEXXZ
	?what@exception@std@@UBEPBDXZ
	?write@?$ColorConsoleAppender@VTxtFormatter@plog@@@plog@@UAEXABVRecord@2@@Z
	?write@?$ConsoleAppender@VTxtFormatter@plog@@@plog@@UAEXABVRecord@2@@Z
	?write@?$Logger@$0A@@plog@@UAEXABVRecord@2@@Z
	?write@?$RollingFileAppender@VCsvFormatter@plog@@V?$NativeEOLConverter@VUTF8Converter@plog@@@2@@plog@@UAEXABVRecord@2@@Z
	?write@File@util@plog@@QAEHPBXI@Z
	?writestr@?$ConsoleAppender@VTxtFormatter@plog@@@plog@@IAEXABV?$basic_string@_WU?$char_traits@_W@std@@V?$allocator@_W@2@@std@@@Z
	wmemcpy
	wmemset
